; Function Attrs: nounwind uwtable
define hidden ptr @dlmemalign(i64 noundef %0, i64 noundef %1) local_unnamed_addr #0 {
  %3 = icmp ult i64 %0, 17
  br i1 %3, label %4, label %6

4:                                                ; preds = %2
  %5 = tail call ptr @dlmalloc(i64 noundef %1)
  br label %8

6:                                                ; preds = %2
  %7 = tail call fastcc ptr @internal_memalign(ptr noundef nonnull @_gm_, i64 noundef %0, i64 noundef %1)
  br label %8

8:                                                ; preds = %6, %4
  %.0 = phi ptr [ %5, %4 ], [ %7, %6 ]
  ret ptr %.0
}